(dp0
S'METTS MARK'
p1
(dp2
S'salary'
p3
F365788.0
sS'total_poi_email_percent'
p4
F0.04425837320574163
sS'deferral_payments'
p5
F0.0
sS'total_payments'
p6
F1061827.0
sS'long_term_incentive'
p7
F0.0
sS'loan_advances'
p8
F0.0
sS'bonus'
p9
F600000.0
sS'restricted_stock'
p10
F585062.0
sS'restricted_stock_deferred'
p11
F0.0
sS'total_stock_value'
p12
F585062.0
sS'expenses'
p13
F94299.0
sS'exercised_stock_options'
p14
F0.0
sS'other'
p15
F1740.0
sS'poi'
p16
I00
sS'total_poi_email'
p17
F37.0
sS'deferred_income'
p18
F0.0
sS'shared_receipt_with_poi'
p19
F702.0
sS'email_address'
p20
F0.0
sS'director_fees'
p21
F0.0
ssS'BAXTER JOHN C'
p22
(dp23
g3
F267102.0
sg4
F0.0
sg5
F1295738.0
sg6
F5634343.0
sg7
F1586055.0
sg8
F0.0
sg9
F1200000.0
sg10
F3942714.0
sg11
F0.0
sg12
F10623258.0
sg13
F11200.0
sg14
F6680544.0
sg15
F2660303.0
sg16
I00
sg17
F0.0
sg18
F-1386055.0
sg19
F0.0
sg20
F0.0
sg21
F0.0
ssS'ELLIOTT STEVEN'
p24
(dp25
g3
F170941.0
sg4
F0.0
sg5
F0.0
sg6
F211725.0
sg7
F0.0
sg8
F0.0
sg9
F350000.0
sg10
F1788391.0
sg11
F0.0
sg12
F6678735.0
sg13
F78552.0
sg14
F4890344.0
sg15
F12961.0
sg16
I00
sg17
F0.0
sg18
F-400729.0
sg19
F0.0
sg20
F0.0
sg21
F0.0
ssS'CORDES WILLIAM R'
p26
(dp27
g3
F0.0
sg4
F0.01288659793814433
sg5
F0.0
sg6
F0.0
sg7
F0.0
sg8
F0.0
sg9
F0.0
sg10
F386335.0
sg11
F0.0
sg12
F1038185.0
sg13
F0.0
sg14
F651850.0
sg15
F0.0
sg16
I00
sg17
F10.0
sg18
F0.0
sg19
F58.0
sg20
F0.0
sg21
F0.0
ssS'HANNON KEVIN P'
p28
(dp29
g3
F243293.0
sg4
F0.01021355617455896
sg5
F0.0
sg6
F288682.0
sg7
F1617011.0
sg8
F0.0
sg9
F1500000.0
sg10
F853064.0
sg11
F0.0
sg12
F6391065.0
sg13
F34039.0
sg14
F5538001.0
sg15
F11350.0
sg16
I01
sg17
F11.0
sg18
F-3117011.0
sg19
F1035.0
sg20
F0.0
sg21
F0.0
ssS'MORDAUNT KRISTINA M'
p30
(dp31
g3
F267093.0
sg4
F0.0
sg5
F0.0
sg6
F628522.0
sg7
F0.0
sg8
F0.0
sg9
F325000.0
sg10
F208510.0
sg11
F0.0
sg12
F208510.0
sg13
F35018.0
sg14
F0.0
sg15
F1411.0
sg16
I00
sg17
F0.0
sg18
F0.0
sg19
F0.0
sg20
F0.0
sg21
F0.0
ssS'MEYER ROCKFORD G'
p32
(dp33
g3
F0.0
sg4
F0.0
sg5
F1848227.0
sg6
F1848227.0
sg7
F0.0
sg8
F0.0
sg9
F0.0
sg10
F462384.0
sg11
F0.0
sg12
F955873.0
sg13
F0.0
sg14
F493489.0
sg15
F0.0
sg16
I00
sg17
F0.0
sg18
F0.0
sg19
F22.0
sg20
F0.0
sg21
F0.0
ssS'MCMAHON JEFFREY'
p34
(dp35
g3
F370448.0
sg4
F0.013316687473990845
sg5
F0.0
sg6
F4099771.0
sg7
F694862.0
sg8
F0.0
sg9
F2600000.0
sg10
F558801.0
sg11
F0.0
sg12
F1662855.0
sg13
F137108.0
sg14
F1104054.0
sg15
F297353.0
sg16
I00
sg17
F32.0
sg18
F0.0
sg19
F2228.0
sg20
F0.0
sg21
F0.0
ssS'HAEDICKE MARK E'
p36
(dp37
g3
F374125.0
sg4
F0.02
sg5
F2157527.0
sg6
F3859065.0
sg7
F983346.0
sg8
F0.0
sg9
F1150000.0
sg10
F524169.0
sg11
F-329825.0
sg12
F803094.0
sg13
F76169.0
sg14
F608750.0
sg15
F52382.0
sg16
I00
sg17
F119.0
sg18
F-934484.0
sg19
F1847.0
sg20
F0.0
sg21
F0.0
ssS'PIPER GREGORY F'
p38
(dp39
g3
F197091.0
sg4
F0.008904109589041096
sg5
F1130036.0
sg6
F1737629.0
sg7
F0.0
sg8
F0.0
sg9
F400000.0
sg10
F409554.0
sg11
F-409554.0
sg12
F880290.0
sg13
F43057.0
sg14
F880290.0
sg15
F778.0
sg16
I00
sg17
F13.0
sg18
F-33333.0
sg19
F742.0
sg20
F0.0
sg21
F0.0
ssS'HUMPHREY GENE E'
p40
(dp41
g3
F130724.0
sg4
F-0.04827586206896552
sg5
F2964506.0
sg6
F3100224.0
sg7
F0.0
sg8
F0.0
sg9
F0.0
sg10
F0.0
sg11
F0.0
sg12
F2282768.0
sg13
F4994.0
sg14
F2282768.0
sg15
F0.0
sg16
I00
sg17
F-7.0
sg18
F0.0
sg19
F119.0
sg20
F0.0
sg21
F0.0
ssS'NOLES JAMES L'
p42
(dp43
g3
F0.0
sg4
F0.0
sg5
F774401.0
sg6
F774401.0
sg7
F0.0
sg8
F0.0
sg9
F0.0
sg10
F463261.0
sg11
F-94556.0
sg12
F368705.0
sg13
F0.0
sg14
F0.0
sg15
F0.0
sg16
I00
sg17
F0.0
sg18
F0.0
sg19
F0.0
sg20
F0.0
sg21
F0.0
ssS'BLACHMAN JEREMY M'
p44
(dp45
g3
F248546.0
sg4
F0.009240658899156288
sg5
F0.0
sg6
F2014835.0
sg7
F831809.0
sg8
F0.0
sg9
F850000.0
sg10
F189041.0
sg11
F0.0
sg12
F954354.0
sg13
F84208.0
sg14
F765313.0
sg15
F272.0
sg16
I00
sg17
F23.0
sg18
F0.0
sg19
F2326.0
sg20
F0.0
sg21
F0.0
ssS'SUNDE MARTIN'
p46
(dp47
g3
F257486.0
sg4
F0.008938547486033519
sg5
F0.0
sg6
F1545059.0
sg7
F476451.0
sg8
F0.0
sg9
F700000.0
sg10
F698920.0
sg11
F0.0
sg12
F698920.0
sg13
F0.0
sg14
F0.0
sg15
F111122.0
sg16
I00
sg17
F24.0
sg18
F0.0
sg19
F2565.0
sg20
F0.0
sg21
F0.0
ssS'GIBBS DANA R'
p48
(dp49
g3
F0.0
sg4
F0.0
sg5
F504610.0
sg6
F966522.0
sg7
F461912.0
sg8
F0.0
sg9
F0.0
sg10
F0.0
sg11
F0.0
sg12
F2218275.0
sg13
F0.0
sg14
F2218275.0
sg15
F0.0
sg16
I00
sg17
F0.0
sg18
F0.0
sg19
F23.0
sg20
F0.0
sg21
F0.0
ssS'LOWRY CHARLES P'
p50
(dp51
g3
F0.0
sg4
F0.0
sg5
F0.0
sg6
F0.0
sg7
F0.0
sg8
F0.0
sg9
F0.0
sg10
F153686.0
sg11
F-153686.0
sg12
F372205.0
sg13
F0.0
sg14
F372205.0
sg15
F0.0
sg16
I00
sg17
F0.0
sg18
F0.0
sg19
F0.0
sg20
F0.0
sg21
F0.0
ssS'COLWELL WESLEY'
p52
(dp53
g3
F288542.0
sg4
F0.12736373748609567
sg5
F27610.0
sg6
F1490344.0
sg7
F0.0
sg8
F0.0
sg9
F1200000.0
sg10
F698242.0
sg11
F0.0
sg12
F698242.0
sg13
F16514.0
sg14
F0.0
sg15
F101740.0
sg16
I01
sg17
F229.0
sg18
F-144062.0
sg19
F1132.0
sg20
F0.0
sg21
F0.0
ssS'MULLER MARK S'
p54
(dp55
g3
F251654.0
sg4
F0.07894736842105263
sg5
F842924.0
sg6
F3202070.0
sg7
F1725545.0
sg8
F0.0
sg9
F1100000.0
sg10
F360528.0
sg11
F0.0
sg12
F1416848.0
sg13
F0.0
sg14
F1056320.0
sg15
F947.0
sg16
I00
sg17
F12.0
sg18
F-719000.0
sg19
F114.0
sg20
F0.0
sg21
F0.0
ssS'JACKSON CHARLENE R'
p56
(dp57
g3
F288558.0
sg4
F0.01910828025477707
sg5
F0.0
sg6
F551174.0
sg7
F0.0
sg8
F0.0
sg9
F250000.0
sg10
F540672.0
sg11
F0.0
sg12
F725735.0
sg13
F10181.0
sg14
F185063.0
sg15
F2435.0
sg16
I00
sg17
F6.0
sg18
F0.0
sg19
F117.0
sg20
F0.0
sg21
F0.0
ssS'WESTFAHL RICHARD K'
p58
(dp59
g3
F63744.0
sg4
F0.0
sg5
F0.0
sg6
F762135.0
sg7
F256191.0
sg8
F0.0
sg9
F0.0
sg10
F384930.0
sg11
F0.0
sg12
F384930.0
sg13
F51870.0
sg14
F0.0
sg15
F401130.0
sg16
I00
sg17
F0.0
sg18
F-10800.0
sg19
F0.0
sg20
F0.0
sg21
F0.0
ssS'WALTERS GARETH W'
p60
(dp61
g3
F0.0
sg4
F0.0
sg5
F53625.0
sg6
F87410.0
sg7
F0.0
sg8
F0.0
sg9
F0.0
sg10
F0.0
sg11
F0.0
sg12
F1030329.0
sg13
F33785.0
sg14
F1030329.0
sg15
F0.0
sg16
I00
sg17
F0.0
sg18
F0.0
sg19
F0.0
sg20
F0.0
sg21
F0.0
ssS'WALLS JR ROBERT H'
p62
(dp63
g3
F357091.0
sg4
F0.0208078335373317
sg5
F0.0
sg6
F1798780.0
sg7
F540751.0
sg8
F0.0
sg9
F850000.0
sg10
F1552453.0
sg11
F0.0
sg12
F5898997.0
sg13
F50936.0
sg14
F4346544.0
sg15
F2.0
sg16
I00
sg17
F17.0
sg18
F0.0
sg19
F215.0
sg20
F0.0
sg21
F0.0
ssS'KITCHEN LOUISE'
p64
(dp65
g3
F271442.0
sg4
F0.005681251868832851
sg5
F0.0
sg6
F3471141.0
sg7
F0.0
sg8
F0.0
sg9
F3100000.0
sg10
F466101.0
sg11
F0.0
sg12
F547143.0
sg13
F5774.0
sg14
F81042.0
sg15
F93925.0
sg16
I00
sg17
F57.0
sg18
F0.0
sg19
F3669.0
sg20
F0.0
sg21
F0.0
ssS'CHAN RONNIE'
p66
(dp67
g3
F0.0
sg4
F0.0
sg5
F0.0
sg6
F0.0
sg7
F0.0
sg8
F0.0
sg9
F0.0
sg10
F32460.0
sg11
F-32460.0
sg12
F0.0
sg13
F0.0
sg14
F0.0
sg15
F0.0
sg16
I00
sg17
F0.0
sg18
F-98784.0
sg19
F0.0
sg20
F0.0
sg21
F98784.0
ssS'BELFER ROBERT'
p68
(dp69
g3
F0.0
sg4
F0.0
sg5
F-102500.0
sg6
F102500.0
sg7
F0.0
sg8
F0.0
sg9
F0.0
sg10
F0.0
sg11
F44093.0
sg12
F-44093.0
sg13
F0.0
sg14
F3285.0
sg15
F0.0
sg16
I00
sg17
F0.0
sg18
F0.0
sg19
F0.0
sg20
F0.0
sg21
F3285.0
ssS'SHANKMAN JEFFREY A'
p70
(dp71
g3
F304110.0
sg4
F0.0018637749915282956
sg5
F0.0
sg6
F3038702.0
sg7
F554422.0
sg8
F0.0
sg9
F2000000.0
sg10
F630137.0
sg11
F0.0
sg12
F2072035.0
sg13
F178979.0
sg14
F1441898.0
sg15
F1191.0
sg16
I00
sg17
F11.0
sg18
F0.0
sg19
F1730.0
sg20
F0.0
sg21
F0.0
ssS'WODRASKA JOHN'
p72
(dp73
g3
F0.0
sg4
F0.0
sg5
F0.0
sg6
F189583.0
sg7
F0.0
sg8
F0.0
sg9
F0.0
sg10
F0.0
sg11
F0.0
sg12
F0.0
sg13
F0.0
sg14
F0.0
sg15
F189583.0
sg16
I00
sg17
F0.0
sg18
F0.0
sg19
F0.0
sg20
F0.0
sg21
F0.0
ssS'BERGSIEKER RICHARD P'
p74
(dp75
g3
F187922.0
sg4
F0.00904977375565611
sg5
F0.0
sg6
F618850.0
sg7
F180250.0
sg8
F0.0
sg9
F250000.0
sg10
F659249.0
sg11
F0.0
sg12
F659249.0
sg13
F59175.0
sg14
F0.0
sg15
F427316.0
sg16
I00
sg17
F4.0
sg18
F-485813.0
sg19
F233.0
sg20
F0.0
sg21
F0.0
ssS'URQUHART JOHN A'
p76
(dp77
g3
F0.0
sg4
F0.0
sg5
F0.0
sg6
F228656.0
sg7
F0.0
sg8
F0.0
sg9
F0.0
sg10
F0.0
sg11
F0.0
sg12
F0.0
sg13
F228656.0
sg14
F0.0
sg15
F0.0
sg16
I00
sg17
F0.0
sg18
F-36666.0
sg19
F0.0
sg20
F0.0
sg21
F36666.0
ssS'BIBI PHILIPPE A'
p78
(dp79
g3
F213625.0
sg4
F0.009107468123861567
sg5
F0.0
sg6
F2047593.0
sg7
F369721.0
sg8
F0.0
sg9
F1000000.0
sg10
F378082.0
sg11
F0.0
sg12
F1843816.0
sg13
F38559.0
sg14
F1465734.0
sg15
F425688.0
sg16
I00
sg17
F15.0
sg18
F0.0
sg19
F1336.0
sg20
F0.0
sg21
F0.0
ssS'RIEKER PAULA H'
p80
(dp81
g3
F249201.0
sg4
F-0.009219858156028368
sg5
F214678.0
sg6
F1099100.0
sg7
F0.0
sg8
F0.0
sg9
F700000.0
sg10
F283649.0
sg11
F0.0
sg12
F1918887.0
sg13
F33271.0
sg14
F1635238.0
sg15
F1950.0
sg16
I01
sg17
F-13.0
sg18
F-100000.0
sg19
F1258.0
sg20
F0.0
sg21
F0.0
ssS'WHALEY DAVID A'
p82
(dp83
g3
F0.0
sg4
F0.0
sg5
F0.0
sg6
F0.0
sg7
F0.0
sg8
F0.0
sg9
F0.0
sg10
F0.0
sg11
F0.0
sg12
F98718.0
sg13
F0.0
sg14
F98718.0
sg15
F0.0
sg16
I00
sg17
F0.0
sg18
F0.0
sg19
F0.0
sg20
F0.0
sg21
F0.0
ssS'BECK SALLY W'
p84
(dp85
g3
F231330.0
sg4
F-0.020758277577629096
sg5
F0.0
sg6
F969068.0
sg7
F0.0
sg8
F0.0
sg9
F700000.0
sg10
F126027.0
sg11
F0.0
sg12
F126027.0
sg13
F37172.0
sg14
F0.0
sg15
F566.0
sg16
I00
sg17
F-242.0
sg18
F0.0
sg19
F2639.0
sg20
F0.0
sg21
F0.0
ssS'HAUG DAVID L'
p86
(dp87
g3
F0.0
sg4
F-0.005067567567567568
sg5
F0.0
sg6
F475.0
sg7
F0.0
sg8
F0.0
sg9
F0.0
sg10
F2217299.0
sg11
F0.0
sg12
F2217299.0
sg13
F475.0
sg14
F0.0
sg15
F0.0
sg16
I00
sg17
F-3.0
sg18
F0.0
sg19
F471.0
sg20
F0.0
sg21
F0.0
ssS'ECHOLS JOHN B'
p88
(dp89
g3
F182245.0
sg4
F0.0
sg5
F0.0
sg6
F2692324.0
sg7
F2234774.0
sg8
F0.0
sg9
F200000.0
sg10
F407503.0
sg11
F0.0
sg12
F1008941.0
sg13
F21530.0
sg14
F601438.0
sg15
F53775.0
sg16
I00
sg17
F0.0
sg18
F0.0
sg19
F0.0
sg20
F0.0
sg21
F0.0
ssS'MENDELSOHN JOHN'
p90
(dp91
g3
F0.0
sg4
F0.0
sg5
F0.0
sg6
F148.0
sg7
F0.0
sg8
F0.0
sg9
F0.0
sg10
F0.0
sg11
F0.0
sg12
F0.0
sg13
F148.0
sg14
F0.0
sg15
F0.0
sg16
I00
sg17
F0.0
sg18
F-103750.0
sg19
F0.0
sg20
F0.0
sg21
F103750.0
ssS'HICKERSON GARY J'
p92
(dp93
g3
F211788.0
sg4
F0.028953229398663696
sg5
F0.0
sg6
F2081796.0
sg7
F69223.0
sg8
F0.0
sg9
F1700000.0
sg10
F441096.0
sg11
F0.0
sg12
F441096.0
sg13
F98849.0
sg14
F0.0
sg15
F1936.0
sg16
I00
sg17
F39.0
sg18
F0.0
sg19
F900.0
sg20
F0.0
sg21
F0.0
ssS'CLINE KENNETH W'
p94
(dp95
g3
F0.0
sg4
F0.0
sg5
F0.0
sg6
F0.0
sg7
F0.0
sg8
F0.0
sg9
F0.0
sg10
F662086.0
sg11
F-472568.0
sg12
F189518.0
sg13
F0.0
sg14
F0.0
sg15
F0.0
sg16
I00
sg17
F0.0
sg18
F0.0
sg19
F0.0
sg20
F0.0
sg21
F0.0
ssS'LEWIS RICHARD'
p96
(dp97
g3
F0.0
sg4
F0.010224948875255624
sg5
F0.0
sg6
F0.0
sg7
F0.0
sg8
F0.0
sg9
F0.0
sg10
F0.0
sg11
F0.0
sg12
F850477.0
sg13
F0.0
sg14
F850477.0
sg15
F0.0
sg16
I00
sg17
F10.0
sg18
F0.0
sg19
F739.0
sg20
F0.0
sg21
F0.0
ssS'HAYES ROBERT E'
p98
(dp99
g3
F0.0
sg4
F0.031007751937984496
sg5
F7961.0
sg6
F7961.0
sg7
F0.0
sg8
F0.0
sg9
F0.0
sg10
F151418.0
sg11
F0.0
sg12
F151418.0
sg13
F0.0
sg14
F0.0
sg15
F0.0
sg16
I00
sg17
F16.0
sg18
F0.0
sg19
F50.0
sg20
F0.0
sg21
F0.0
ssS'KOPPER MICHAEL J'
p100
(dp101
g3
F224305.0
sg4
F0.0
sg5
F0.0
sg6
F2652612.0
sg7
F602671.0
sg8
F0.0
sg9
F800000.0
sg10
F985032.0
sg11
F0.0
sg12
F985032.0
sg13
F118134.0
sg14
F0.0
sg15
F907502.0
sg16
I01
sg17
F0.0
sg18
F0.0
sg19
F0.0
sg20
F0.0
sg21
F0.0
ssS'LEFF DANIEL P'
p102
(dp103
g3
F273746.0
sg4
F0.018370883882149046
sg5
F0.0
sg6
F2664228.0
sg7
F1387399.0
sg8
F0.0
sg9
F1000000.0
sg10
F360528.0
sg11
F0.0
sg12
F360528.0
sg13
F0.0
sg14
F0.0
sg15
F3083.0
sg16
I00
sg17
F53.0
sg18
F0.0
sg19
F2672.0
sg20
F0.0
sg21
F0.0
ssS'LAVORATO JOHN J'
p104
(dp105
g3
F339288.0
sg4
F0.011885412433969931
sg5
F0.0
sg6
F10425757.0
sg7
F2035380.0
sg8
F0.0
sg9
F8000000.0
sg10
F1008149.0
sg11
F0.0
sg12
F5167144.0
sg13
F49537.0
sg14
F4158995.0
sg15
F1552.0
sg16
I00
sg17
F117.0
sg18
F0.0
sg19
F3962.0
sg20
F0.0
sg21
F0.0
ssS'BERBERIAN DAVID'
p106
(dp107
g3
F216582.0
sg4
F0.0
sg5
F0.0
sg6
F228474.0
sg7
F0.0
sg8
F0.0
sg9
F0.0
sg10
F869220.0
sg11
F0.0
sg12
F2493616.0
sg13
F11892.0
sg14
F1624396.0
sg15
F0.0
sg16
I00
sg17
F0.0
sg18
F0.0
sg19
F0.0
sg20
F0.0
sg21
F0.0
ssS'DETMERING TIMOTHY J'
p108
(dp109
g3
F210500.0
sg4
F0.0
sg5
F875307.0
sg6
F1204583.0
sg7
F415657.0
sg8
F0.0
sg9
F425000.0
sg10
F315068.0
sg11
F-315068.0
sg12
F2027865.0
sg13
F52255.0
sg14
F2027865.0
sg15
F1105.0
sg16
I00
sg17
F0.0
sg18
F-775241.0
sg19
F0.0
sg20
F0.0
sg21
F0.0
ssS'WAKEHAM JOHN'
p110
(dp111
g3
F0.0
sg4
F0.0
sg5
F0.0
sg6
F213071.0
sg7
F0.0
sg8
F0.0
sg9
F0.0
sg10
F0.0
sg11
F0.0
sg12
F0.0
sg13
F103773.0
sg14
F0.0
sg15
F0.0
sg16
I00
sg17
F0.0
sg18
F0.0
sg19
F0.0
sg20
F0.0
sg21
F109298.0
ssS'POWERS WILLIAM'
p112
(dp113
g3
F0.0
sg4
F0.0
sg5
F0.0
sg6
F0.0
sg7
F0.0
sg8
F0.0
sg9
F0.0
sg10
F0.0
sg11
F0.0
sg12
F0.0
sg13
F0.0
sg14
F0.0
sg15
F0.0
sg16
I00
sg17
F0.0
sg18
F-17500.0
sg19
F12.0
sg20
F0.0
sg21
F17500.0
ssS'GOLD JOSEPH'
p114
(dp115
g3
F272880.0
sg4
F0.0
sg5
F0.0
sg6
F2146973.0
sg7
F304805.0
sg8
F0.0
sg9
F750000.0
sg10
F441096.0
sg11
F0.0
sg12
F877611.0
sg13
F0.0
sg14
F436515.0
sg15
F819288.0
sg16
I00
sg17
F0.0
sg18
F0.0
sg19
F0.0
sg20
F0.0
sg21
F0.0
ssS'BANNANTINE JAMES M'
p116
(dp117
g3
F477.0
sg4
F0.06554621848739496
sg5
F0.0
sg6
F916197.0
sg7
F0.0
sg8
F0.0
sg9
F0.0
sg10
F1757552.0
sg11
F-560222.0
sg12
F5243487.0
sg13
F56301.0
sg14
F4046157.0
sg15
F864523.0
sg16
I00
sg17
F39.0
sg18
F-5104.0
sg19
F465.0
sg20
F0.0
sg21
F0.0
ssS'DUNCAN JOHN H'
p118
(dp119
g3
F0.0
sg4
F0.0
sg5
F0.0
sg6
F77492.0
sg7
F0.0
sg8
F0.0
sg9
F0.0
sg10
F0.0
sg11
F0.0
sg12
F371750.0
sg13
F0.0
sg14
F371750.0
sg15
F0.0
sg16
I00
sg17
F0.0
sg18
F-25000.0
sg19
F0.0
sg20
F0.0
sg21
F102492.0
ssS'SHAPIRO RICHARD S'
p120
(dp121
g3
F269076.0
sg4
F0.0005499877780493767
sg5
F0.0
sg6
F1057548.0
sg7
F0.0
sg8
F0.0
sg9
F650000.0
sg10
F379164.0
sg11
F0.0
sg12
F987001.0
sg13
F137767.0
sg14
F607837.0
sg15
F705.0
sg16
I00
sg17
F9.0
sg18
F0.0
sg19
F4527.0
sg20
F0.0
sg21
F0.0
ssS'SHERRIFF JOHN R'
p122
(dp123
g3
F428780.0
sg4
F0.0015248551387618177
sg5
F0.0
sg6
F4335388.0
sg7
F554422.0
sg8
F0.0
sg9
F1500000.0
sg10
F1293424.0
sg11
F0.0
sg12
F3128982.0
sg13
F0.0
sg14
F1835558.0
sg15
F1852186.0
sg16
I00
sg17
F5.0
sg18
F0.0
sg19
F2103.0
sg20
F0.0
sg21
F0.0
ssS'SHELBY REX'
p124
(dp125
g3
F211844.0
sg4
F-0.003787878787878788
sg5
F0.0
sg6
F2003885.0
sg7
F0.0
sg8
F0.0
sg9
F200000.0
sg10
F869220.0
sg11
F0.0
sg12
F2493616.0
sg13
F22884.0
sg14
F1624396.0
sg15
F1573324.0
sg16
I01
sg17
F-1.0
sg18
F-4167.0
sg19
F91.0
sg20
F0.0
sg21
F0.0
ssS'LEMAISTRE CHARLES'
p126
(dp127
g3
F0.0
sg4
F0.0
sg5
F0.0
sg6
F87492.0
sg7
F0.0
sg8
F0.0
sg9
F0.0
sg10
F0.0
sg11
F0.0
sg12
F412878.0
sg13
F0.0
sg14
F412878.0
sg15
F0.0
sg16
I00
sg17
F0.0
sg18
F-25000.0
sg19
F0.0
sg20
F0.0
sg21
F112492.0
ssS'DEFFNER JOSEPH M'
p128
(dp129
g3
F206121.0
sg4
F0.14086294416243655
sg5
F0.0
sg6
F1208649.0
sg7
F335349.0
sg8
F0.0
sg9
F600000.0
sg10
F141833.0
sg11
F0.0
sg12
F159211.0
sg13
F41626.0
sg14
F17378.0
sg15
F25553.0
sg16
I00
sg17
F111.0
sg18
F0.0
sg19
F552.0
sg20
F0.0
sg21
F0.0
ssS'KISHKILL JOSEPH G'
p130
(dp131
g3
F174246.0
sg4
F0.0
sg5
F0.0
sg6
F704896.0
sg7
F0.0
sg8
F0.0
sg9
F0.0
sg10
F1034346.0
sg11
F0.0
sg12
F1034346.0
sg13
F116335.0
sg14
F0.0
sg15
F465357.0
sg16
I00
sg17
F0.0
sg18
F-51042.0
sg19
F0.0
sg20
F0.0
sg21
F0.0
ssS'WHALLEY LAWRENCE G'
p132
(dp133
g3
F510364.0
sg4
F0.024638783269961977
sg5
F0.0
sg6
F4677574.0
sg7
F808346.0
sg8
F0.0
sg9
F3000000.0
sg10
F2796177.0
sg11
F0.0
sg12
F6079137.0
sg13
F57838.0
sg14
F3282960.0
sg15
F301026.0
sg16
I00
sg17
F162.0
sg18
F0.0
sg19
F3920.0
sg20
F0.0
sg21
F0.0
ssS'PIRO JIM'
p134
(dp135
g3
F0.0
sg4
F-0.013513513513513514
sg5
F0.0
sg6
F0.0
sg7
F0.0
sg8
F0.0
sg9
F0.0
sg10
F47304.0
sg11
F0.0
sg12
F47304.0
sg13
F0.0
sg14
F0.0
sg15
F0.0
sg16
I00
sg17
F-1.0
sg18
F0.0
sg19
F3.0
sg20
F0.0
sg21
F0.0
ssS'MCCONNELL MICHAEL S'
p136
(dp137
g3
F365038.0
sg4
F-0.016801185966068194
sg5
F0.0
sg6
F2101364.0
sg7
F554422.0
sg8
F0.0
sg9
F1100000.0
sg10
F1478269.0
sg11
F0.0
sg12
F3101279.0
sg13
F81364.0
sg14
F1623010.0
sg15
F540.0
sg16
I00
sg17
F-102.0
sg18
F0.0
sg19
F2189.0
sg20
F0.0
sg21
F0.0
ssS'DELAINEY DAVID W'
p138
(dp139
g3
F365163.0
sg4
F-0.0881207400194742
sg5
F0.0
sg6
F4747979.0
sg7
F1294981.0
sg8
F0.0
sg9
F3000000.0
sg10
F1323148.0
sg11
F0.0
sg12
F3614261.0
sg13
F86174.0
sg14
F2291113.0
sg15
F1661.0
sg16
I01
sg17
F-543.0
sg18
F0.0
sg19
F2097.0
sg20
F0.0
sg21
F0.0
ssS'SULLIVAN-SHAKLOVITZ COLLEEN'
p140
(dp141
g3
F162779.0
sg4
F0.0
sg5
F181993.0
sg6
F999356.0
sg7
F554422.0
sg8
F0.0
sg9
F100000.0
sg10
F0.0
sg11
F0.0
sg12
F1362375.0
sg13
F0.0
sg14
F1362375.0
sg15
F162.0
sg16
I00
sg17
F0.0
sg18
F0.0
sg19
F0.0
sg20
F0.0
sg21
F0.0
ssS'WROBEL BRUCE'
p142
(dp143
g3
F0.0
sg4
F0.0
sg5
F0.0
sg6
F0.0
sg7
F0.0
sg8
F0.0
sg9
F0.0
sg10
F0.0
sg11
F0.0
sg12
F139130.0
sg13
F0.0
sg14
F139130.0
sg15
F0.0
sg16
I00
sg17
F0.0
sg18
F0.0
sg19
F0.0
sg20
F0.0
sg21
F0.0
ssS'LINDHOLM TOD A'
p144
(dp145
g3
F236457.0
sg4
F0.0
sg5
F204075.0
sg6
F875889.0
sg7
F175000.0
sg8
F0.0
sg9
F200000.0
sg10
F514847.0
sg11
F0.0
sg12
F3064208.0
sg13
F57727.0
sg14
F2549361.0
sg15
F2630.0
sg16
I00
sg17
F0.0
sg18
F0.0
sg19
F0.0
sg20
F0.0
sg21
F0.0
ssS'MEYER JEROME J'
p146
(dp147
g3
F0.0
sg4
F0.0
sg5
F0.0
sg6
F2151.0
sg7
F0.0
sg8
F0.0
sg9
F0.0
sg10
F0.0
sg11
F0.0
sg12
F0.0
sg13
F2151.0
sg14
F0.0
sg15
F0.0
sg16
I00
sg17
F0.0
sg18
F-38346.0
sg19
F0.0
sg20
F0.0
sg21
F38346.0
ssS'LAY KENNETH L'
p148
(dp149
g3
F1072321.0
sg4
F0.02483174750522163
sg5
F202911.0
sg6
F103559793.0
sg7
F3600000.0
sg8
F81525000.0
sg9
F7000000.0
sg10
F14761694.0
sg11
F0.0
sg12
F49110078.0
sg13
F99832.0
sg14
F34348384.0
sg15
F10359729.0
sg16
I01
sg17
F107.0
sg18
F-300000.0
sg19
F2411.0
sg20
F0.0
sg21
F0.0
ssS'BUTTS ROBERT H'
p150
(dp151
g3
F261516.0
sg4
F0.0
sg5
F0.0
sg6
F1271582.0
sg7
F175000.0
sg8
F0.0
sg9
F750000.0
sg10
F417619.0
sg11
F0.0
sg12
F417619.0
sg13
F9410.0
sg14
F0.0
sg15
F150656.0
sg16
I00
sg17
F0.0
sg18
F-75000.0
sg19
F0.0
sg20
F0.0
sg21
F0.0
ssS'OLSON CINDY K'
p152
(dp153
g3
F329078.0
sg4
F0.0040453074433656954
sg5
F77716.0
sg6
F1321557.0
sg7
F100000.0
sg8
F0.0
sg9
F750000.0
sg10
F969729.0
sg11
F0.0
sg12
F2606763.0
sg13
F63791.0
sg14
F1637034.0
sg15
F972.0
sg16
I00
sg17
F5.0
sg18
F0.0
sg19
F856.0
sg20
F0.0
sg21
F0.0
ssS'MCDONALD REBECCA'
p154
(dp155
g3
F0.0
sg4
F0.05843439911797133
sg5
F0.0
sg6
F0.0
sg7
F0.0
sg8
F0.0
sg9
F0.0
sg10
F934065.0
sg11
F0.0
sg12
F1691366.0
sg13
F0.0
sg14
F757301.0
sg15
F0.0
sg16
I00
sg17
F53.0
sg18
F0.0
sg19
F720.0
sg20
F0.0
sg21
F0.0
ssS'CUMBERLAND MICHAEL S'
p156
(dp157
g3
F184899.0
sg4
F0.0
sg5
F0.0
sg6
F807956.0
sg7
F275000.0
sg8
F0.0
sg9
F325000.0
sg10
F207940.0
sg11
F0.0
sg12
F207940.0
sg13
F22344.0
sg14
F0.0
sg15
F713.0
sg16
I00
sg17
F0.0
sg18
F0.0
sg19
F0.0
sg20
F0.0
sg21
F0.0
ssS'GAHN ROBERT S'
p158
(dp159
g3
F192008.0
sg4
F0.0
sg5
F73122.0
sg6
F900585.0
sg7
F0.0
sg8
F0.0
sg9
F509870.0
sg10
F235370.0
sg11
F0.0
sg12
F318607.0
sg13
F50080.0
sg14
F83237.0
sg15
F76547.0
sg16
I00
sg17
F0.0
sg18
F-1042.0
sg19
F0.0
sg20
F0.0
sg21
F0.0
ssS'BADUM JAMES P'
p160
(dp161
g3
F0.0
sg4
F0.0
sg5
F178980.0
sg6
F182466.0
sg7
F0.0
sg8
F0.0
sg9
F0.0
sg10
F0.0
sg11
F0.0
sg12
F257817.0
sg13
F3486.0
sg14
F257817.0
sg15
F0.0
sg16
I00
sg17
F0.0
sg18
F0.0
sg19
F0.0
sg20
F0.0
sg21
F0.0
ssS'HERMANN ROBERT J'
p162
(dp163
g3
F262663.0
sg4
F0.0
sg5
F0.0
sg6
F1297461.0
sg7
F150000.0
sg8
F0.0
sg9
F700000.0
sg10
F480632.0
sg11
F0.0
sg12
F668132.0
sg13
F48357.0
sg14
F187500.0
sg15
F416441.0
sg16
I00
sg17
F0.0
sg18
F-280000.0
sg19
F0.0
sg20
F0.0
sg21
F0.0
ssS'FALLON JAMES B'
p164
(dp165
g3
F304588.0
sg4
F0.00273224043715847
sg5
F0.0
sg6
F3676340.0
sg7
F374347.0
sg8
F0.0
sg9
F2500000.0
sg10
F1392142.0
sg11
F0.0
sg12
F2332399.0
sg13
F95924.0
sg14
F940257.0
sg15
F401481.0
sg16
I00
sg17
F5.0
sg18
F0.0
sg19
F1604.0
sg20
F0.0
sg21
F0.0
ssS'GATHMANN WILLIAM D'
p166
(dp167
g3
F0.0
sg4
F0.0
sg5
F0.0
sg6
F0.0
sg7
F0.0
sg8
F0.0
sg9
F0.0
sg10
F264013.0
sg11
F-72419.0
sg12
F1945360.0
sg13
F0.0
sg14
F1753766.0
sg15
F0.0
sg16
I00
sg17
F0.0
sg18
F0.0
sg19
F0.0
sg20
F0.0
sg21
F0.0
ssS'HORTON STANLEY C'
p168
(dp169
g3
F0.0
sg4
F0.008472100496640374
sg5
F3131860.0
sg6
F3131860.0
sg7
F0.0
sg8
F0.0
sg9
F0.0
sg10
F2046079.0
sg11
F0.0
sg12
F7256648.0
sg13
F0.0
sg14
F5210569.0
sg15
F0.0
sg16
I00
sg17
F29.0
sg18
F0.0
sg19
F1074.0
sg20
F0.0
sg21
F0.0
ssS'BOWEN JR RAYMOND M'
p170
(dp171
g3
F278601.0
sg4
F0.06631299734748011
sg5
F0.0
sg6
F2669589.0
sg7
F974293.0
sg8
F0.0
sg9
F1350000.0
sg10
F252055.0
sg11
F0.0
sg12
F252055.0
sg13
F65907.0
sg14
F0.0
sg15
F1621.0
sg16
I01
sg17
F125.0
sg18
F-833.0
sg19
F1593.0
sg20
F0.0
sg21
F0.0
ssS'GILLIS JOHN'
p172
(dp173
g3
F0.0
sg4
F0.0
sg5
F0.0
sg6
F0.0
sg7
F0.0
sg8
F0.0
sg9
F0.0
sg10
F75838.0
sg11
F0.0
sg12
F85641.0
sg13
F0.0
sg14
F9803.0
sg15
F0.0
sg16
I00
sg17
F0.0
sg18
F0.0
sg19
F0.0
sg20
F0.0
sg21
F0.0
ssS'FITZGERALD JAY L'
p174
(dp175
g3
F199157.0
sg4
F-0.007352941176470588
sg5
F0.0
sg6
F1414857.0
sg7
F556416.0
sg8
F0.0
sg9
F350000.0
sg10
F956775.0
sg11
F0.0
sg12
F1621236.0
sg13
F23870.0
sg14
F664461.0
sg15
F285414.0
sg16
I00
sg17
F-7.0
sg18
F0.0
sg19
F723.0
sg20
F0.0
sg21
F0.0
ssS'MORAN MICHAEL P'
p176
(dp177
g3
F0.0
sg4
F0.0
sg5
F0.0
sg6
F0.0
sg7
F0.0
sg8
F0.0
sg9
F0.0
sg10
F161602.0
sg11
F0.0
sg12
F221141.0
sg13
F0.0
sg14
F59539.0
sg15
F0.0
sg16
I00
sg17
F0.0
sg18
F0.0
sg19
F127.0
sg20
F0.0
sg21
F0.0
ssS'REDMOND BRIAN L'
p178
(dp179
g3
F96840.0
sg4
F0.08192389006342495
sg5
F0.0
sg6
F111529.0
sg7
F0.0
sg8
F0.0
sg9
F0.0
sg10
F381285.0
sg11
F0.0
sg12
F7890324.0
sg13
F14689.0
sg14
F7509039.0
sg15
F0.0
sg16
I00
sg17
F155.0
sg18
F0.0
sg19
F1063.0
sg20
F0.0
sg21
F0.0
ssS'BAZELIDES PHILIP J'
p180
(dp181
g3
F80818.0
sg4
F0.0
sg5
F684694.0
sg6
F860136.0
sg7
F93750.0
sg8
F0.0
sg9
F0.0
sg10
F0.0
sg11
F0.0
sg12
F1599641.0
sg13
F0.0
sg14
F1599641.0
sg15
F874.0
sg16
I00
sg17
F0.0
sg18
F0.0
sg19
F0.0
sg20
F0.0
sg21
F0.0
ssS'BELDEN TIMOTHY N'
p182
(dp183
g3
F213999.0
sg4
F0.01415929203539823
sg5
F2144013.0
sg6
F5501630.0
sg7
F0.0
sg8
F0.0
sg9
F5249999.0
sg10
F157569.0
sg11
F0.0
sg12
F1110705.0
sg13
F17355.0
sg14
F953136.0
sg15
F210698.0
sg16
I01
sg17
F120.0
sg18
F-2334434.0
sg19
F5521.0
sg20
F0.0
sg21
F0.0
ssS'DIMICHELE RICHARD G'
p184
(dp185
g3
F262788.0
sg4
F0.0
sg5
F0.0
sg6
F2368151.0
sg7
F694862.0
sg8
F0.0
sg9
F1000000.0
sg10
F126027.0
sg11
F0.0
sg12
F8317782.0
sg13
F35812.0
sg14
F8191755.0
sg15
F374689.0
sg16
I00
sg17
F0.0
sg18
F0.0
sg19
F0.0
sg20
F0.0
sg21
F0.0
ssS'DURAN WILLIAM D'
p186
(dp187
g3
F210692.0
sg4
F0.11244541484716157
sg5
F0.0
sg6
F2093263.0
sg7
F1105218.0
sg8
F0.0
sg9
F750000.0
sg10
F189041.0
sg11
F0.0
sg12
F1640910.0
sg13
F25785.0
sg14
F1451869.0
sg15
F1568.0
sg16
I00
sg17
F103.0
sg18
F0.0
sg19
F599.0
sg20
F0.0
sg21
F0.0
ssS'THORN TERENCE H'
p188
(dp189
g3
F222093.0
sg4
F0.0
sg5
F16586.0
sg6
F911453.0
sg7
F200000.0
sg8
F0.0
sg9
F0.0
sg10
F365320.0
sg11
F0.0
sg12
F4817796.0
sg13
F46145.0
sg14
F4452476.0
sg15
F426629.0
sg16
I00
sg17
F0.0
sg18
F0.0
sg19
F73.0
sg20
F0.0
sg21
F0.0
ssS'FASTOW ANDREW S'
p190
(dp191
g3
F440698.0
sg4
F0.0
sg5
F0.0
sg6
F2424083.0
sg7
F1736055.0
sg8
F0.0
sg9
F1300000.0
sg10
F1794412.0
sg11
F0.0
sg12
F1794412.0
sg13
F55921.0
sg14
F0.0
sg15
F277464.0
sg16
I01
sg17
F0.0
sg18
F-1386055.0
sg19
F0.0
sg20
F0.0
sg21
F0.0
ssS'FOY JOE'
p192
(dp193
g3
F0.0
sg4
F0.0
sg5
F181755.0
sg6
F181755.0
sg7
F0.0
sg8
F0.0
sg9
F0.0
sg10
F0.0
sg11
F0.0
sg12
F343434.0
sg13
F0.0
sg14
F343434.0
sg15
F0.0
sg16
I00
sg17
F0.0
sg18
F0.0
sg19
F2.0
sg20
F0.0
sg21
F0.0
ssS'CALGER CHRISTOPHER F'
p194
(dp195
g3
F240189.0
sg4
F0.06345733041575492
sg5
F0.0
sg6
F1639297.0
sg7
F375304.0
sg8
F0.0
sg9
F1250000.0
sg10
F126027.0
sg11
F0.0
sg12
F126027.0
sg13
F35818.0
sg14
F0.0
sg15
F486.0
sg16
I01
sg17
F174.0
sg18
F-262500.0
sg19
F2188.0
sg20
F0.0
sg21
F0.0
ssS'RICE KENNETH D'
p196
(dp197
g3
F420636.0
sg4
F0.041170097508125676
sg5
F0.0
sg6
F505050.0
sg7
F1617011.0
sg8
F0.0
sg9
F1750000.0
sg10
F2748364.0
sg11
F0.0
sg12
F22542539.0
sg13
F46950.0
sg14
F19794175.0
sg15
F174839.0
sg16
I01
sg17
F38.0
sg18
F-3504386.0
sg19
F864.0
sg20
F0.0
sg21
F0.0
ssS'KAMINSKI WINCENTY J'
p198
(dp199
g3
F275101.0
sg4
F-0.006851119894598155
sg5
F0.0
sg6
F1086821.0
sg7
F323466.0
sg8
F0.0
sg9
F400000.0
sg10
F126027.0
sg11
F0.0
sg12
F976037.0
sg13
F83585.0
sg14
F850010.0
sg15
F4669.0
sg16
I00
sg17
F-130.0
sg18
F0.0
sg19
F583.0
sg20
F0.0
sg21
F0.0
ssS'LOCKHART EUGENE E'
p200
(dp201
g3
F0.0
sg4
F0.0
sg5
F0.0
sg6
F0.0
sg7
F0.0
sg8
F0.0
sg9
F0.0
sg10
F0.0
sg11
F0.0
sg12
F0.0
sg13
F0.0
sg14
F0.0
sg15
F0.0
sg16
I00
sg17
F0.0
sg18
F0.0
sg19
F0.0
sg20
F0.0
sg21
F0.0
ssS'COX DAVID'
p202
(dp203
g3
F314288.0
sg4
F-0.02962962962962963
sg5
F0.0
sg6
F1101393.0
sg7
F0.0
sg8
F0.0
sg9
F800000.0
sg10
F378082.0
sg11
F0.0
sg12
F495633.0
sg13
F27861.0
sg14
F117551.0
sg15
F494.0
sg16
I00
sg17
F-4.0
sg18
F-41250.0
sg19
F71.0
sg20
F0.0
sg21
F0.0
ssS'OVERDYKE JR JERE C'
p204
(dp205
g3
F94941.0
sg4
F0.0
sg5
F0.0
sg6
F249787.0
sg7
F135836.0
sg8
F0.0
sg9
F0.0
sg10
F2041016.0
sg11
F0.0
sg12
F7307594.0
sg13
F18834.0
sg14
F5266578.0
sg15
F176.0
sg16
I00
sg17
F0.0
sg18
F0.0
sg19
F0.0
sg20
F0.0
sg21
F0.0
ssS'PEREIRA PAULO V. FERRAZ'
p206
(dp207
g3
F0.0
sg4
F0.0
sg5
F0.0
sg6
F27942.0
sg7
F0.0
sg8
F0.0
sg9
F0.0
sg10
F0.0
sg11
F0.0
sg12
F0.0
sg13
F27942.0
sg14
F0.0
sg15
F0.0
sg16
I00
sg17
F0.0
sg18
F-101250.0
sg19
F0.0
sg20
F0.0
sg21
F101250.0
ssS'STABLER FRANK'
p208
(dp209
g3
F239502.0
sg4
F0.0
sg5
F0.0
sg6
F1112087.0
sg7
F0.0
sg8
F0.0
sg9
F500000.0
sg10
F511734.0
sg11
F0.0
sg12
F511734.0
sg13
F16514.0
sg14
F0.0
sg15
F356071.0
sg16
I00
sg17
F0.0
sg18
F0.0
sg19
F0.0
sg20
F0.0
sg21
F0.0
ssS'SKILLING JEFFREY K'
p210
(dp211
g3
F1111258.0
sg4
F0.015528781793842034
sg5
F0.0
sg6
F8682716.0
sg7
F1920000.0
sg8
F0.0
sg9
F5600000.0
sg10
F6843672.0
sg11
F0.0
sg12
F26093672.0
sg13
F29336.0
sg14
F19250000.0
sg15
F22122.0
sg16
I01
sg17
F58.0
sg18
F0.0
sg19
F2042.0
sg20
F0.0
sg21
F0.0
ssS'BLAKE JR. NORMAN P'
p212
(dp213
g3
F0.0
sg4
F0.0
sg5
F0.0
sg6
F1279.0
sg7
F0.0
sg8
F0.0
sg9
F0.0
sg10
F0.0
sg11
F0.0
sg12
F0.0
sg13
F1279.0
sg14
F0.0
sg15
F0.0
sg16
I00
sg17
F0.0
sg18
F-113784.0
sg19
F0.0
sg20
F0.0
sg21
F113784.0
ssS'SHERRICK JEFFREY B'
p214
(dp215
g3
F0.0
sg4
F0.032915360501567396
sg5
F0.0
sg6
F0.0
sg7
F0.0
sg8
F0.0
sg9
F0.0
sg10
F405999.0
sg11
F0.0
sg12
F1832468.0
sg13
F0.0
sg14
F1426469.0
sg15
F0.0
sg16
I00
sg17
F21.0
sg18
F0.0
sg19
F583.0
sg20
F0.0
sg21
F0.0
ssS'PRENTICE JAMES'
p216
(dp217
g3
F0.0
sg4
F0.0
sg5
F564348.0
sg6
F564348.0
sg7
F0.0
sg8
F0.0
sg9
F0.0
sg10
F208809.0
sg11
F0.0
sg12
F1095040.0
sg13
F0.0
sg14
F886231.0
sg15
F0.0
sg16
I00
sg17
F0.0
sg18
F0.0
sg19
F0.0
sg20
F0.0
sg21
F0.0
ssS'GRAY RODNEY'
p218
(dp219
g3
F6615.0
sg4
F0.0
sg5
F93585.0
sg6
F1146658.0
sg7
F365625.0
sg8
F0.0
sg9
F0.0
sg10
F0.0
sg11
F0.0
sg12
F0.0
sg13
F0.0
sg14
F0.0
sg15
F680833.0
sg16
I00
sg17
F0.0
sg18
F0.0
sg19
F0.0
sg20
F0.0
sg21
F0.0
ssS'UMANOFF ADAM S'
p220
(dp221
g3
F288589.0
sg4
F0.09302325581395349
sg5
F0.0
sg6
F1130461.0
sg7
F0.0
sg8
F0.0
sg9
F788750.0
sg10
F0.0
sg11
F0.0
sg12
F0.0
sg13
F53122.0
sg14
F0.0
sg15
F0.0
sg16
I00
sg17
F12.0
sg18
F0.0
sg19
F41.0
sg20
F0.0
sg21
F0.0
ssS'KEAN STEVEN J'
p222
(dp223
g3
F404338.0
sg4
F-0.012658227848101266
sg5
F0.0
sg6
F1747522.0
sg7
F300000.0
sg8
F0.0
sg9
F1000000.0
sg10
F4131594.0
sg11
F0.0
sg12
F6153642.0
sg13
F41953.0
sg14
F2022048.0
sg15
F1231.0
sg16
I00
sg17
F-247.0
sg18
F0.0
sg19
F3639.0
sg20
F0.0
sg21
F0.0
ssS'FOWLER PEGGY'
p224
(dp225
g3
F0.0
sg4
F0.0
sg5
F0.0
sg6
F0.0
sg7
F0.0
sg8
F0.0
sg9
F0.0
sg10
F560170.0
sg11
F0.0
sg12
F1884748.0
sg13
F0.0
sg14
F1324578.0
sg15
F0.0
sg16
I00
sg17
F0.0
sg18
F0.0
sg19
F10.0
sg20
F0.0
sg21
F0.0
ssS'WASAFF GEORGE'
p226
(dp227
g3
F259996.0
sg4
F0.03488372093023256
sg5
F831299.0
sg6
F1034395.0
sg7
F200000.0
sg8
F0.0
sg9
F325000.0
sg10
F388167.0
sg11
F0.0
sg12
F2056427.0
sg13
F0.0
sg14
F1668260.0
sg15
F1425.0
sg16
I00
sg17
F15.0
sg18
F-583325.0
sg19
F337.0
sg20
F0.0
sg21
F0.0
ssS'WHITE JR THOMAS E'
p228
(dp229
g3
F317543.0
sg4
F0.0
sg5
F0.0
sg6
F1934359.0
sg7
F0.0
sg8
F0.0
sg9
F450000.0
sg10
F13847074.0
sg11
F0.0
sg12
F15144123.0
sg13
F81353.0
sg14
F1297049.0
sg15
F1085463.0
sg16
I00
sg17
F0.0
sg18
F0.0
sg19
F0.0
sg20
F0.0
sg21
F0.0
ssS'CHRISTODOULOU DIOMEDES'
p230
(dp231
g3
F0.0
sg4
F0.0
sg5
F0.0
sg6
F0.0
sg7
F0.0
sg8
F0.0
sg9
F0.0
sg10
F950730.0
sg11
F0.0
sg12
F6077885.0
sg13
F0.0
sg14
F5127155.0
sg15
F0.0
sg16
I00
sg17
F0.0
sg18
F0.0
sg19
F0.0
sg20
F0.0
sg21
F0.0
ssS'ALLEN PHILLIP K'
p232
(dp233
g3
F201955.0
sg4
F-0.003531489111241907
sg5
F2869717.0
sg6
F4484442.0
sg7
F304805.0
sg8
F0.0
sg9
F4175000.0
sg10
F126027.0
sg11
F-126027.0
sg12
F1729541.0
sg13
F13868.0
sg14
F1729541.0
sg15
F152.0
sg16
I00
sg17
F-18.0
sg18
F-3081055.0
sg19
F1407.0
sg20
F0.0
sg21
F0.0
ssS'SHARP VICTORIA T'
p234
(dp235
g3
F248146.0
sg4
F0.005501222493887531
sg5
F187469.0
sg6
F1576511.0
sg7
F422158.0
sg8
F0.0
sg9
F600000.0
sg10
F213063.0
sg11
F0.0
sg12
F494136.0
sg13
F116337.0
sg14
F281073.0
sg15
F2401.0
sg16
I00
sg17
F18.0
sg18
F0.0
sg19
F2477.0
sg20
F0.0
sg21
F0.0
ssS'JAEDICKE ROBERT'
p236
(dp237
g3
F0.0
sg4
F0.0
sg5
F0.0
sg6
F83750.0
sg7
F0.0
sg8
F0.0
sg9
F0.0
sg10
F44093.0
sg11
F-44093.0
sg12
F431750.0
sg13
F0.0
sg14
F431750.0
sg15
F0.0
sg16
I00
sg17
F0.0
sg18
F-25000.0
sg19
F0.0
sg20
F0.0
sg21
F108750.0
ssS'WINOKUR JR. HERBERT S'
p238
(dp239
g3
F0.0
sg4
F0.0
sg5
F0.0
sg6
F84992.0
sg7
F0.0
sg8
F0.0
sg9
F0.0
sg10
F0.0
sg11
F0.0
sg12
F0.0
sg13
F1413.0
sg14
F0.0
sg15
F0.0
sg16
I00
sg17
F0.0
sg18
F-25000.0
sg19
F0.0
sg20
F0.0
sg21
F108579.0
ssS'BROWN MICHAEL'
p240
(dp241
g3
F0.0
sg4
F0.007858546168958742
sg5
F0.0
sg6
F49288.0
sg7
F0.0
sg8
F0.0
sg9
F0.0
sg10
F0.0
sg11
F0.0
sg12
F0.0
sg13
F49288.0
sg14
F0.0
sg15
F0.0
sg16
I00
sg17
F12.0
sg18
F0.0
sg19
F761.0
sg20
F0.0
sg21
F0.0
ssS'MCCLELLAN GEORGE'
p242
(dp243
g3
F263413.0
sg4
F0.029001673173452314
sg5
F0.0
sg6
F1318763.0
sg7
F0.0
sg8
F0.0
sg9
F900000.0
sg10
F441096.0
sg11
F0.0
sg12
F947861.0
sg13
F228763.0
sg14
F506765.0
sg15
F51587.0
sg16
I00
sg17
F52.0
sg18
F-125000.0
sg19
F1469.0
sg20
F0.0
sg21
F0.0
ssS'HUGHES JAMES A'
p244
(dp245
g3
F0.0
sg4
F0.0398406374501992
sg5
F0.0
sg6
F0.0
sg7
F0.0
sg8
F0.0
sg9
F0.0
sg10
F363428.0
sg11
F0.0
sg12
F1118394.0
sg13
F0.0
sg14
F754966.0
sg15
F0.0
sg16
I00
sg17
F30.0
sg18
F0.0
sg19
F589.0
sg20
F0.0
sg21
F0.0
ssS'REYNOLDS LAWRENCE'
p246
(dp247
g3
F76399.0
sg4
F0.0
sg5
F51365.0
sg6
F394475.0
sg7
F156250.0
sg8
F0.0
sg9
F100000.0
sg10
F201483.0
sg11
F-140264.0
sg12
F4221891.0
sg13
F8409.0
sg14
F4160672.0
sg15
F202052.0
sg16
I00
sg17
F0.0
sg18
F-200000.0
sg19
F0.0
sg20
F0.0
sg21
F0.0
ssS'PICKERING MARK R'
p248
(dp249
g3
F655037.0
sg4
F0.007253886010362694
sg5
F0.0
sg6
F1386690.0
sg7
F0.0
sg8
F400000.0
sg9
F300000.0
sg10
F0.0
sg11
F0.0
sg12
F28798.0
sg13
F31653.0
sg14
F28798.0
sg15
F0.0
sg16
I00
sg17
F7.0
sg18
F0.0
sg19
F728.0
sg20
F0.0
sg21
F0.0
ssS'BHATNAGAR SANJAY'
p250
(dp251
g3
F0.0
sg4
F-0.0018115942028985507
sg5
F0.0
sg6
F15456290.0
sg7
F0.0
sg8
F0.0
sg9
F0.0
sg10
F-2604490.0
sg11
F15456290.0
sg12
F0.0
sg13
F0.0
sg14
F2604490.0
sg15
F137864.0
sg16
I00
sg17
F-1.0
sg18
F0.0
sg19
F463.0
sg20
F0.0
sg21
F137864.0
ssS'CARTER REBECCA C'
p252
(dp253
g3
F261809.0
sg4
F0.0672782874617737
sg5
F0.0
sg6
F477557.0
sg7
F75000.0
sg8
F0.0
sg9
F300000.0
sg10
F307301.0
sg11
F-307301.0
sg12
F0.0
sg13
F0.0
sg14
F0.0
sg15
F540.0
sg16
I00
sg17
F22.0
sg18
F-159792.0
sg19
F196.0
sg20
F0.0
sg21
F0.0
ssS'BUCHANAN HAROLD G'
p254
(dp255
g3
F248017.0
sg4
F0.0
sg5
F0.0
sg6
F1054637.0
sg7
F304805.0
sg8
F0.0
sg9
F500000.0
sg10
F189041.0
sg11
F0.0
sg12
F1014505.0
sg13
F600.0
sg14
F825464.0
sg15
F1215.0
sg16
I00
sg17
F0.0
sg18
F0.0
sg19
F23.0
sg20
F0.0
sg21
F0.0
ssS'YEAP SOON'
p256
(dp257
g3
F0.0
sg4
F0.0
sg5
F0.0
sg6
F55097.0
sg7
F0.0
sg8
F0.0
sg9
F0.0
sg10
F0.0
sg11
F0.0
sg12
F192758.0
sg13
F55097.0
sg14
F192758.0
sg15
F0.0
sg16
I00
sg17
F0.0
sg18
F0.0
sg19
F0.0
sg20
F0.0
sg21
F0.0
ssS'MURRAY JULIA H'
p258
(dp259
g3
F229284.0
sg4
F0.004023245417970496
sg5
F0.0
sg6
F812194.0
sg7
F125000.0
sg8
F0.0
sg9
F400000.0
sg10
F196983.0
sg11
F0.0
sg12
F597461.0
sg13
F57580.0
sg14
F400478.0
sg15
F330.0
sg16
I00
sg17
F9.0
sg18
F0.0
sg19
F395.0
sg20
F0.0
sg21
F0.0
ssS'GARLAND C KEVIN'
p260
(dp261
g3
F231946.0
sg4
F-0.06719367588932806
sg5
F0.0
sg6
F1566469.0
sg7
F375304.0
sg8
F0.0
sg9
F850000.0
sg10
F259907.0
sg11
F0.0
sg12
F896153.0
sg13
F48405.0
sg14
F636246.0
sg15
F60814.0
sg16
I00
sg17
F-17.0
sg18
F0.0
sg19
F178.0
sg20
F0.0
sg21
F0.0
ssS'DODSON KEITH'
p262
(dp263
g3
F221003.0
sg4
F0.03684210526315789
sg5
F0.0
sg6
F319941.0
sg7
F0.0
sg8
F0.0
sg9
F70000.0
sg10
F0.0
sg11
F0.0
sg12
F0.0
sg13
F28164.0
sg14
F0.0
sg15
F774.0
sg16
I00
sg17
F7.0
sg18
F0.0
sg19
F114.0
sg20
F0.0
sg21
F0.0
ssS'YEAGER F SCOTT'
p264
(dp265
g3
F158403.0
sg4
F0.0
sg5
F0.0
sg6
F360300.0
sg7
F0.0
sg8
F0.0
sg9
F0.0
sg10
F3576206.0
sg11
F0.0
sg12
F11884758.0
sg13
F53947.0
sg14
F8308552.0
sg15
F147950.0
sg16
I01
sg17
F0.0
sg18
F0.0
sg19
F0.0
sg20
F0.0
sg21
F0.0
ssS'HIRKO JOSEPH'
p266
(dp267
g3
F0.0
sg4
F0.0
sg5
F10259.0
sg6
F91093.0
sg7
F0.0
sg8
F0.0
sg9
F0.0
sg10
F0.0
sg11
F0.0
sg12
F30766064.0
sg13
F77978.0
sg14
F30766064.0
sg15
F2856.0
sg16
I01
sg17
F0.0
sg18
F0.0
sg19
F0.0
sg20
F0.0
sg21
F0.0
ssS'DIETRICH JANET R'
p268
(dp269
g3
F250100.0
sg4
F0.11043643263757116
sg5
F0.0
sg6
F1410464.0
sg7
F556416.0
sg8
F0.0
sg9
F600000.0
sg10
F315068.0
sg11
F0.0
sg12
F1865087.0
sg13
F3475.0
sg14
F1550019.0
sg15
F473.0
sg16
I00
sg17
F291.0
sg18
F0.0
sg19
F1902.0
sg20
F0.0
sg21
F0.0
ssS'DERRICK JR. JAMES V'
p270
(dp271
g3
F492375.0
sg4
F0.01423948220064725
sg5
F0.0
sg6
F550981.0
sg7
F484000.0
sg8
F0.0
sg9
F800000.0
sg10
F1787380.0
sg11
F-1787380.0
sg12
F8831913.0
sg13
F51124.0
sg14
F8831913.0
sg15
F7482.0
sg16
I00
sg17
F44.0
sg18
F-1284000.0
sg19
F1401.0
sg20
F0.0
sg21
F0.0
ssS'FREVERT MARK A'
p272
(dp273
g3
F1060932.0
sg4
F0.07160194174757281
sg5
F6426990.0
sg6
F17252530.0
sg7
F1617011.0
sg8
F2000000.0
sg9
F2000000.0
sg10
F4188667.0
sg11
F0.0
sg12
F14622185.0
sg13
F86987.0
sg14
F10433518.0
sg15
F7427621.0
sg16
I00
sg17
F236.0
sg18
F-3367011.0
sg19
F2979.0
sg20
F0.0
sg21
F0.0
ssS'PAI LOU L'
p274
(dp275
g3
F261879.0
sg4
F0.0
sg5
F0.0
sg6
F3123383.0
sg7
F0.0
sg8
F0.0
sg9
F1000000.0
sg10
F8453763.0
sg11
F0.0
sg12
F23817930.0
sg13
F32047.0
sg14
F15364167.0
sg15
F1829457.0
sg16
I00
sg17
F0.0
sg18
F0.0
sg19
F0.0
sg20
F0.0
sg21
F0.0
ssS'HAYSLETT RODERICK J'
p276
(dp277
g3
F0.0
sg4
F-0.0008086253369272237
sg5
F0.0
sg6
F0.0
sg7
F0.0
sg8
F0.0
sg9
F0.0
sg10
F346663.0
sg11
F0.0
sg12
F346663.0
sg13
F0.0
sg14
F0.0
sg15
F0.0
sg16
I00
sg17
F-3.0
sg18
F0.0
sg19
F571.0
sg20
F0.0
sg21
F0.0
ssS'BAY FRANKLIN R'
p278
(dp279
g3
F239671.0
sg4
F0.0
sg5
F260455.0
sg6
F827696.0
sg7
F0.0
sg8
F0.0
sg9
F400000.0
sg10
F145796.0
sg11
F-82782.0
sg12
F63014.0
sg13
F129142.0
sg14
F0.0
sg15
F69.0
sg16
I00
sg17
F0.0
sg18
F-201641.0
sg19
F0.0
sg20
F0.0
sg21
F0.0
ssS'MCCARTY DANNY J'
p280
(dp281
g3
F0.0
sg4
F0.013956310679611651
sg5
F0.0
sg6
F0.0
sg7
F0.0
sg8
F0.0
sg9
F0.0
sg10
F94556.0
sg11
F0.0
sg12
F758931.0
sg13
F0.0
sg14
F664375.0
sg15
F0.0
sg16
I00
sg17
F23.0
sg18
F0.0
sg19
F508.0
sg20
F0.0
sg21
F0.0
ssS'FUGH JOHN L'
p282
(dp283
g3
F0.0
sg4
F0.0
sg5
F50591.0
sg6
F50591.0
sg7
F0.0
sg8
F0.0
sg9
F0.0
sg10
F0.0
sg11
F0.0
sg12
F176378.0
sg13
F0.0
sg14
F176378.0
sg15
F0.0
sg16
I00
sg17
F0.0
sg18
F0.0
sg19
F0.0
sg20
F0.0
sg21
F0.0
ssS'SCRIMSHAW MATTHEW'
p284
(dp285
g3
F0.0
sg4
F0.0
sg5
F0.0
sg6
F0.0
sg7
F0.0
sg8
F0.0
sg9
F0.0
sg10
F0.0
sg11
F0.0
sg12
F759557.0
sg13
F0.0
sg14
F759557.0
sg15
F0.0
sg16
I00
sg17
F0.0
sg18
F0.0
sg19
F0.0
sg20
F0.0
sg21
F0.0
ssS'KOENIG MARK E'
p286
(dp287
g3
F309946.0
sg4
F0.015605749486652977
sg5
F0.0
sg6
F1587421.0
sg7
F300000.0
sg8
F0.0
sg9
F700000.0
sg10
F1248318.0
sg11
F0.0
sg12
F1920055.0
sg13
F127017.0
sg14
F671737.0
sg15
F150458.0
sg16
I01
sg17
F38.0
sg18
F0.0
sg19
F2271.0
sg20
F0.0
sg21
F0.0
ssS'SAVAGE FRANK'
p288
(dp289
g3
F0.0
sg4
F0.0
sg5
F0.0
sg6
F3750.0
sg7
F0.0
sg8
F0.0
sg9
F0.0
sg10
F0.0
sg11
F0.0
sg12
F0.0
sg13
F0.0
sg14
F0.0
sg15
F0.0
sg16
I00
sg17
F0.0
sg18
F-121284.0
sg19
F0.0
sg20
F0.0
sg21
F125034.0
ssS'IZZO LAWRENCE L'
p290
(dp291
g3
F85274.0
sg4
F0.04466019417475728
sg5
F0.0
sg6
F1979596.0
sg7
F312500.0
sg8
F0.0
sg9
F0.0
sg10
F3654808.0
sg11
F0.0
sg12
F5819980.0
sg13
F28093.0
sg14
F2165172.0
sg15
F1553729.0
sg16
I00
sg17
F23.0
sg18
F0.0
sg19
F437.0
sg20
F0.0
sg21
F0.0
ssS'TILNEY ELIZABETH A'
p292
(dp293
g3
F247338.0
sg4
F-0.0020876826722338203
sg5
F0.0
sg6
F399393.0
sg7
F275000.0
sg8
F0.0
sg9
F300000.0
sg10
F576792.0
sg11
F0.0
sg12
F1168042.0
sg13
F0.0
sg14
F591250.0
sg15
F152055.0
sg16
I00
sg17
F-1.0
sg18
F-575000.0
sg19
F379.0
sg20
F0.0
sg21
F0.0
ssS'MARTIN AMANDA K'
p294
(dp295
g3
F349487.0
sg4
F0.0045662100456621
sg5
F85430.0
sg6
F8407016.0
sg7
F5145434.0
sg8
F0.0
sg9
F0.0
sg10
F0.0
sg11
F0.0
sg12
F2070306.0
sg13
F8211.0
sg14
F2070306.0
sg15
F2818454.0
sg16
I00
sg17
F8.0
sg18
F0.0
sg19
F477.0
sg20
F0.0
sg21
F0.0
ssS'BUY RICHARD B'
p296
(dp297
g3
F330546.0
sg4
F0.018575174825174824
sg5
F649584.0
sg6
F2355702.0
sg7
F769862.0
sg8
F0.0
sg9
F900000.0
sg10
F901657.0
sg11
F0.0
sg12
F3444470.0
sg13
F0.0
sg14
F2542813.0
sg15
F400572.0
sg16
I00
sg17
F85.0
sg18
F-694862.0
sg19
F2333.0
sg20
F0.0
sg21
F0.0
ssS'GRAMM WENDY L'
p298
(dp299
g3
F0.0
sg4
F0.0
sg5
F0.0
sg6
F119292.0
sg7
F0.0
sg8
F0.0
sg9
F0.0
sg10
F0.0
sg11
F0.0
sg12
F0.0
sg13
F0.0
sg14
F0.0
sg15
F0.0
sg16
I00
sg17
F0.0
sg18
F0.0
sg19
F0.0
sg20
F0.0
sg21
F119292.0
ssS'CAUSEY RICHARD A'
p300
(dp301
g3
F415189.0
sg4
F0.02369912416280268
sg5
F0.0
sg6
F1868758.0
sg7
F350000.0
sg8
F0.0
sg9
F1000000.0
sg10
F2502063.0
sg11
F0.0
sg12
F2502063.0
sg13
F30674.0
sg14
F0.0
sg15
F307895.0
sg16
I01
sg17
F46.0
sg18
F-235000.0
sg19
F1585.0
sg20
F0.0
sg21
F0.0
ssS'TAYLOR MITCHELL S'
p302
(dp303
g3
F265214.0
sg4
F0.0
sg5
F227449.0
sg6
F1092663.0
sg7
F0.0
sg8
F0.0
sg9
F600000.0
sg10
F563798.0
sg11
F0.0
sg12
F3745048.0
sg13
F0.0
sg14
F3181250.0
sg15
F0.0
sg16
I00
sg17
F0.0
sg18
F0.0
sg19
F300.0
sg20
F0.0
sg21
F0.0
ssS'DONAHUE JR JEFFREY M'
p304
(dp305
g3
F278601.0
sg4
F0.1995490417136415
sg5
F0.0
sg6
F875760.0
sg7
F0.0
sg8
F0.0
sg9
F800000.0
sg10
F315068.0
sg11
F0.0
sg12
F1080988.0
sg13
F96268.0
sg14
F765920.0
sg15
F891.0
sg16
I00
sg17
F177.0
sg18
F-300000.0
sg19
F772.0
sg20
F0.0
sg21
F0.0
ssS'GLISAN JR BEN F'
p306
(dp307
g3
F274975.0
sg4
F0.05174353205849269
sg5
F0.0
sg6
F1272284.0
sg7
F71023.0
sg8
F0.0
sg9
F600000.0
sg10
F393818.0
sg11
F0.0
sg12
F778546.0
sg13
F125978.0
sg14
F384728.0
sg15
F200308.0
sg16
I01
sg17
F46.0
sg18
F0.0
sg19
F874.0
sg20
F0.0
sg21
F0.0
ss.